cpCore.Serialization
RawObjectConstructor
p1
(cpMolecule.System
System
p2
tRp3
(dp4
S'energyModel'
p5
g1
(cpMolecule.EnergyModel
EnergyModel
p6
tRp7
(dp8
S'nbModel'
p9
g1
(cpMolecule.NBModelABFS
NBModelABFS
p10
tRp11
(dp12
S'checkForInverses'
p13
I01
sS'qcmmCoupling'
p14
S'RC Coupling'
p15
sS'generator'
p16
g1
(cpCore.PairListGenerator
PairListGenerator
p17
tRp18
(dp19
S'minimumCellExtent'
p20
I2
sS'minimumExtentFactor'
p21
F1.5
sS'cutoff'
p22
F13.5
sS'cutoffCellSizeFactor'
p23
F0.5
sS'useGridByCell'
p24
I01
sS'cellSize'
p25
F6.75
sS'minimumCellSize'
p26
F3
sS'sortIndices'
p27
I00
sS'minimumPoints'
p28
I500
sbsS'outerCutoff'
p29
F12
sS'qcmmPairwiseInteraction'
p30
g1
(cpMolecule.PairwiseInteraction
PairwiseInteractionABFS
p31
tRp32
(dp33
S'splinePointDensity'
p34
I50
sS'useAnalyticForm'
p35
I01
sS'width2'
p36
F1.0583544165999998
sg29
F12
sS'width1'
p37
F0
sS'dampingCutoff'
p38
F0
sS'innerCutoff'
p39
F8
sS'electrostaticModel'
p40
S'Delta/Gaussian'
p41
sbsS'useCentering'
p42
I00
sS'electrostaticScale14'
p43
F0.5
sg38
F0.5
sS'listCutoff'
p44
F13.5
sS'imageExpandFactor'
p45
I0
sS'qcqcPairwiseInteraction'
p46
g1
(g31
tRp47
(dp48
g34
I50
sg35
I01
sg36
F1.0583544165999998
sg29
F12
sg37
F1.0583544165999998
sg38
F0
sg39
F8
sg40
S'Gaussian/Gaussian'
p49
sbsg39
F8
sS'dielectric'
p50
F1
sS'mmmmPairwiseInteraction'
p51
g1
(g31
tRp52
(dp53
g34
I50
sg35
I01
sg36
F0
sg29
F12
sg37
F0
sg38
F0.5
sg39
F8
sg40
S'Delta/Delta'
p54
sbsbsS'mmAtoms'
p55
g1
(cpMolecule.MMAtomContainer
MMAtomContainer
p56
tRp57
(dp58
S'atomFields'
p59
(lp60
S'isActive'
p61
aS'atomType'
p62
aS'ljType'
p63
aS'charge'
p64
asS'atomTypes'
p65
(lp66
S'C'
aS'CT'
p67
aS'H'
aS'HC'
p68
aS'N'
aS'O'
asS'atoms'
p69
(lp70
(lp71
I01
aI1
aI1
aF-0.17999999999999999
aa(lp72
I01
aI3
aI3
aF0.059999999999999998
aa(lp73
I01
aI3
aI3
aF0.059999999999999998
aa(lp74
I01
aI3
aI3
aF0.059999999999999998
aa(lp75
I01
aI0
aI0
aF0.5
aa(lp76
I01
aI5
aI5
aF-0.5
aa(lp77
I01
aI4
aI4
aF-0.5
aa(lp78
I01
aI2
aI2
aF0.29999999999999999
aa(lp79
I01
aI1
aI1
aF0.14000000000000001
aa(lp80
I01
aI3
aI3
aF0.059999999999999998
aa(lp81
I01
aI1
aI1
aF-0.17999999999999999
aa(lp82
I01
aI3
aI3
aF0.059999999999999998
aa(lp83
I01
aI3
aI3
aF0.059999999999999998
aa(lp84
I01
aI3
aI3
aF0.059999999999999998
aa(lp85
I01
aI0
aI0
aF0.5
aa(lp86
I01
aI5
aI5
aF-0.5
aa(lp87
I01
aI4
aI4
aF-0.5
aa(lp88
I01
aI2
aI2
aF0.29999999999999999
aa(lp89
I01
aI1
aI1
aF0.020000000000000018
aa(lp90
I01
aI3
aI3
aF0.059999999999999998
aa(lp91
I01
aI3
aI3
aF0.059999999999999998
aa(lp92
I01
aI3
aI3
aF0.059999999999999998
aasbsS'interactions14'
p93
g1
(cpCore.PairList
SelfPairList
p94
tRp95
(dp96
S'items'
p97
(lp98
I5
aI1
aI5
aI2
aI5
aI3
aI6
aI1
aI6
aI2
aI6
aI3
aI7
aI0
aI7
aI5
aI8
aI0
aI8
aI5
aI9
aI4
aI9
aI7
aI10
aI4
aI10
aI7
aI11
aI6
aI11
aI9
aI12
aI6
aI12
aI9
aI13
aI6
aI13
aI9
aI14
aI4
aI14
aI7
aI14
aI11
aI14
aI12
aI14
aI13
aI15
aI6
aI15
aI9
aI15
aI10
aI16
aI6
aI16
aI9
aI16
aI10
aI17
aI8
aI17
aI15
aI18
aI8
aI18
aI15
aI19
aI14
aI19
aI17
aI20
aI14
aI20
aI17
aI21
aI14
aI21
aI17
asS'shape'
p99
(lp100
I41
aI2
asS'label'
p101
S'1-4 Interactions'
p102
sbsS'mmModel'
p103
g1
(cpMolecule.MMModel
MMModelOPLS
p104
tRp105
(dp106
S'lennardJonesScale14'
p107
F0.5
sg101
S'OPLS'
p108
sS'lennardJonesStyle'
p109
g108
sg43
F0.5
sS'path'
p110
NsS'fullPath'
p111
NsS'parameterSet'
p112
Nsbsg101
S'OPLS/ABFS'
p113
sS'ljParameters'
p114
g1
(cpMolecule.LJParameterContainer
LJParameterContainer
p115
tRp116
(dp117
S'parameterKeys'
p118
(lp119
S'C'
ag67
aS'H'
ag68
aS'N'
aS'O'
asg101
S'Lennard-Jones'
p120
sS'epsilons'
p121
(lp122
F0.43931999999999999
aF0.276144
aF0
aF0.12551999999999999
aF0.71128000000000013
aF0.87863999999999998
asS'numberOfTypes'
p123
I6
sS'sigmas'
p124
(lp125
F3.75
aF3.5
aF0
aF2.5
aF3.25
aF2.96
asS'analyticForm'
p126
S'OPLS'
p127
sbsS'mmTerms'
p128
g1
(cpMolecule.MMTermContainer
MMTermContainer
p129
tRp130
(dp131
S'Fourier Dihedral'
p132
g1
(cpMolecule.FourierDihedralContainer
FourierDihedralContainer
p133
tRp134
(dp135
S'terms'
p136
(lp137
(lp138
I7
aI6
aI4
aI0
aI0
aI01
aa(lp139
I7
aI6
aI4
aI5
aI1
aI01
aa(lp140
I8
aI6
aI4
aI0
aI2
aI01
aa(lp141
I8
aI6
aI4
aI0
aI3
aI01
aa(lp142
I8
aI6
aI4
aI5
aI4
aI01
aa(lp143
I10
aI8
aI6
aI4
aI5
aI01
aa(lp144
I14
aI8
aI6
aI4
aI6
aI01
aa(lp145
I14
aI8
aI6
aI4
aI7
aI01
aa(lp146
I14
aI8
aI6
aI4
aI8
aI01
aa(lp147
I11
aI10
aI8
aI6
aI9
aI01
aa(lp148
I11
aI10
aI8
aI9
aI10
aI01
aa(lp149
I11
aI10
aI8
aI14
aI11
aI01
aa(lp150
I12
aI10
aI8
aI6
aI9
aI01
aa(lp151
I12
aI10
aI8
aI9
aI10
aI01
aa(lp152
I12
aI10
aI8
aI14
aI11
aI01
aa(lp153
I13
aI10
aI8
aI6
aI9
aI01
aa(lp154
I13
aI10
aI8
aI9
aI10
aI01
aa(lp155
I13
aI10
aI8
aI14
aI11
aI01
aa(lp156
I16
aI14
aI8
aI6
aI12
aI01
aa(lp157
I16
aI14
aI8
aI6
aI13
aI01
aa(lp158
I16
aI14
aI8
aI6
aI14
aI01
aa(lp159
I16
aI14
aI8
aI10
aI15
aI01
aa(lp160
I16
aI14
aI8
aI10
aI16
aI01
aa(lp161
I16
aI14
aI8
aI10
aI17
aI01
aa(lp162
I17
aI16
aI14
aI8
aI0
aI01
aa(lp163
I17
aI16
aI14
aI15
aI1
aI01
aa(lp164
I18
aI16
aI14
aI8
aI2
aI01
aa(lp165
I18
aI16
aI14
aI8
aI3
aI01
aa(lp166
I18
aI16
aI14
aI15
aI4
aI01
aasS'parameters'
p167
(lp168
(lp169
F20.501600000000003
aI2
aF3.1415926535897931
aa(lp170
F20.501600000000003
aI2
aF3.1415926535897931
aa(lp171
F11.715199999999999
aI1
aF0
aa(lp172
F25.476376000000002
aI2
aF3.1415926535897931
aa(lp173
F25.476376000000002
aI2
aF3.1415926535897931
aa(lp174
F1.9330080000000001
aI2
aF3.1415926535897931
aa(lp175
F-9.8951600000000006
aI1
aF0
aa(lp176
F3.8158080000000001
aI2
aF3.1415926535897931
aa(lp177
F-3.5564
aI3
aF0
aa(lp178
F1.9413760000000002
aI3
aF0
aa(lp179
F1.3305120000000001
aI3
aF0
aa(lp180
F-0.31798399999999999
aI3
aF0
aa(lp181
F7.5981440000000005
aI1
aF0
aa(lp182
F5.1128480000000005
aI2
aF3.1415926535897931
aa(lp183
F6.6149040000000001
aI3
aF0
aa(lp184
F4.907832
aI1
aF0
aa(lp185
F0.79077600000000003
aI2
aF3.1415926535897931
aa(lp186
F-5.0208000000000004
aI3
aF0
aasg118
(lp187
S'H:N:C:CT:2'
p188
aS'H:N:C:O:2'
p189
aS'CT:N:C:CT:1'
p190
aS'CT:N:C:CT:2'
p191
aS'CT:N:C:O:2'
p192
aS'C:N:CT:CT:2'
p193
aS'C:N:CT:C:1'
p194
aS'C:N:CT:C:2'
p195
aS'C:N:CT:C:3'
p196
aS'N:CT:CT:HC:3'
p197
aS'HC:CT:CT:HC:3'
p198
aS'HC:CT:CT:C:3'
p199
aS'N:CT:C:N:1'
p200
aS'N:CT:C:N:2'
p201
aS'N:CT:C:N:3'
p202
aS'CT:CT:C:N:1'
p203
aS'CT:CT:C:N:2'
p204
aS'CT:CT:C:N:3'
p205
asg101
g132
sS'parameterFields'
p206
(lp207
S'forceConstant'
p208
aS'period'
p209
aS'phase'
p210
asS'termFields'
p211
(lp212
S'atom1'
p213
aS'atom2'
p214
aS'atom3'
p215
aS'atom4'
p216
aS'parameter'
p217
ag61
asbsS'Fourier Out-Of-Plane'
p218
g1
(g133
tRp219
(dp220
g136
(lp221
(lp222
I5
aI4
aI0
aI6
aI0
aI01
aa(lp223
I0
aI5
aI4
aI6
aI0
aI01
aa(lp224
I5
aI6
aI4
aI0
aI0
aI01
aa(lp225
I7
aI6
aI4
aI8
aI1
aI01
aa(lp226
I4
aI7
aI6
aI8
aI1
aI01
aa(lp227
I7
aI8
aI6
aI4
aI1
aI01
aa(lp228
I15
aI14
aI8
aI16
aI0
aI01
aa(lp229
I8
aI15
aI14
aI16
aI0
aI01
aa(lp230
I15
aI16
aI14
aI8
aI0
aI01
aa(lp231
I17
aI16
aI14
aI18
aI1
aI01
aa(lp232
I14
aI17
aI16
aI18
aI1
aI01
aa(lp233
I17
aI18
aI16
aI14
aI1
aI01
aasg167
(lp234
(lp235
F14.644
aI2
aF3.1415926535897931
aa(lp236
F1.3946666666666667
aI2
aF3.1415926535897931
aasg118
(lp237
S'C:CT:N:O'
p238
aS'N:C:CT:H'
p239
asg101
g218
sg206
(lp240
g208
ag209
ag210
asg211
(lp241
g213
ag214
ag215
ag216
ag217
ag61
asbsS'Harmonic Angle'
p242
g1
(cpMolecule.HarmonicAngleContainer
HarmonicAngleContainer
p243
tRp244
(dp245
g136
(lp246
(lp247
I2
aI0
aI1
aI0
aI01
aa(lp248
I3
aI0
aI1
aI0
aI01
aa(lp249
I3
aI0
aI2
aI0
aI01
aa(lp250
I4
aI0
aI1
aI1
aI01
aa(lp251
I4
aI0
aI2
aI1
aI01
aa(lp252
I4
aI0
aI3
aI1
aI01
aa(lp253
I5
aI4
aI0
aI2
aI01
aa(lp254
I6
aI4
aI0
aI3
aI01
aa(lp255
I6
aI4
aI5
aI4
aI01
aa(lp256
I7
aI6
aI4
aI5
aI01
aa(lp257
I8
aI6
aI4
aI6
aI01
aa(lp258
I8
aI6
aI7
aI7
aI01
aa(lp259
I9
aI8
aI6
aI8
aI01
aa(lp260
I10
aI8
aI6
aI9
aI01
aa(lp261
I10
aI8
aI9
aI10
aI01
aa(lp262
I14
aI8
aI6
aI11
aI01
aa(lp263
I14
aI8
aI9
aI1
aI01
aa(lp264
I14
aI8
aI10
aI12
aI01
aa(lp265
I11
aI10
aI8
aI10
aI01
aa(lp266
I12
aI10
aI8
aI10
aI01
aa(lp267
I12
aI10
aI11
aI0
aI01
aa(lp268
I13
aI10
aI8
aI10
aI01
aa(lp269
I13
aI10
aI11
aI0
aI01
aa(lp270
I13
aI10
aI12
aI0
aI01
aa(lp271
I15
aI14
aI8
aI2
aI01
aa(lp272
I16
aI14
aI8
aI3
aI01
aa(lp273
I16
aI14
aI15
aI4
aI01
aa(lp274
I17
aI16
aI14
aI5
aI01
aa(lp275
I18
aI16
aI14
aI6
aI01
aa(lp276
I18
aI16
aI17
aI7
aI01
aa(lp277
I19
aI18
aI16
aI8
aI01
aa(lp278
I20
aI18
aI16
aI8
aI01
aa(lp279
I20
aI18
aI19
aI0
aI01
aa(lp280
I21
aI18
aI16
aI8
aI01
aa(lp281
I21
aI18
aI19
aI0
aI01
aa(lp282
I21
aI18
aI20
aI0
aI01
aasg167
(lp283
(lp284
F1.8814649336498872
aF138.072
aa(lp285
F1.911135530933791
aF146.44
aa(lp286
F2.101376419401173
aF334.72000000000003
aa(lp287
F2.0350539078253882
aF292.88
aa(lp288
F2.1450096507010312
aF334.72000000000003
aa(lp289
F2.0909044438892068
aF146.44
aa(lp290
F2.1275563581810877
aF209.20000000000002
aa(lp291
F2.0664698343612864
aF158.99200000000002
aa(lp292
F1.911135530933791
aF146.44
aa(lp293
F1.9146261894377796
aF334.72000000000003
aa(lp294
F1.9320794819577229
aF156.90000000000001
aa(lp295
F1.9216075064457567
aF263.59199999999998
aa(lp296
F1.9390607989657
aF263.59199999999998
aasg118
(lp297
S'HC:CT:HC'
p298
aS'HC:CT:C'
p299
aS'O:C:CT'
p300
aS'N:C:CT'
p301
aS'O:C:N'
p302
aS'H:N:C'
p303
aS'CT:N:C'
p304
aS'H:N:CT'
p305
aS'N:CT:HC'
p306
aS'N:CT:CT'
p307
aS'HC:CT:CT'
p308
aS'N:CT:C'
p309
aS'CT:CT:C'
p310
asg101
g242
sg206
(lp311
S'equilibriumValue'
p312
ag208
asg211
(lp313
g213
ag214
ag215
ag216
ag217
ag61
asbsS'Harmonic Bond'
p314
g1
(cpMolecule.HarmonicBondContainer
HarmonicBondContainer
p315
tRp316
(dp317
g136
(lp318
(lp319
I1
aI0
aI3
aI01
aa(lp320
I2
aI0
aI3
aI01
aa(lp321
I3
aI0
aI3
aI01
aa(lp322
I4
aI0
aI6
aI01
aa(lp323
I5
aI4
aI1
aI01
aa(lp324
I6
aI4
aI0
aI01
aa(lp325
I7
aI6
aI5
aI01
aa(lp326
I8
aI6
aI4
aI01
aa(lp327
I9
aI8
aI3
aI01
aa(lp328
I10
aI8
aI2
aI01
aa(lp329
I11
aI10
aI3
aI01
aa(lp330
I12
aI10
aI3
aI01
aa(lp331
I13
aI10
aI3
aI01
aa(lp332
I14
aI8
aI6
aI01
aa(lp333
I15
aI14
aI1
aI01
aa(lp334
I16
aI14
aI0
aI01
aa(lp335
I17
aI16
aI5
aI01
aa(lp336
I18
aI16
aI4
aI01
aa(lp337
I19
aI18
aI3
aI01
aa(lp338
I20
aI18
aI3
aI01
aa(lp339
I21
aI18
aI3
aI01
aasg167
(lp340
(lp341
F1.335
aF2050.1599999999999
aa(lp342
F1.2290000000000001
aF2384.8800000000001
aa(lp343
F1.5289999999999999
aF1121.3120000000001
aa(lp344
F1.0900000000000001
aF1422.5599999999999
aa(lp345
F1.4490000000000001
aF1410.008
aa(lp346
F1.01
aF1815.856
aa(lp347
F1.522
aF1326.328
aasg118
(lp348
S'N:C'
p349
aS'O:C'
p350
aS'CT:CT'
p351
aS'HC:CT'
p352
aS'N:CT'
p353
aS'N:H'
p354
aS'CT:C'
p355
asg101
g314
sS'is12Interaction'
p356
I01
sg206
(lp357
g312
ag208
asg211
(lp358
g213
ag214
ag217
ag61
asbsbsS'ljParameters14'
p359
g1
(g115
tRp360
(dp361
g118
(lp362
S'C'
ag67
aS'H'
ag68
aS'N'
aS'O'
asg101
S'1-4 Lennard-Jones'
p363
sg121
(lp364
F0.21965999999999999
aF0.138072
aF0
aF0.062759999999999996
aF0.35564000000000007
aF0.43931999999999999
asg123
I6
sg124
(lp365
F3.75
aF3.5
aF0
aF2.5
aF3.25
aF2.96
asg126
g127
sbsS'exclusions'
p366
g1
(g94
tRp367
(dp368
g97
(lp369
I1
aI0
aI2
aI0
aI2
aI1
aI3
aI0
aI3
aI1
aI3
aI2
aI4
aI0
aI4
aI1
aI4
aI2
aI4
aI3
aI5
aI0
aI5
aI1
aI5
aI2
aI5
aI3
aI5
aI4
aI6
aI0
aI6
aI1
aI6
aI2
aI6
aI3
aI6
aI4
aI6
aI5
aI7
aI0
aI7
aI4
aI7
aI5
aI7
aI6
aI8
aI0
aI8
aI4
aI8
aI5
aI8
aI6
aI8
aI7
aI9
aI4
aI9
aI6
aI9
aI7
aI9
aI8
aI10
aI4
aI10
aI6
aI10
aI7
aI10
aI8
aI10
aI9
aI11
aI6
aI11
aI8
aI11
aI9
aI11
aI10
aI12
aI6
aI12
aI8
aI12
aI9
aI12
aI10
aI12
aI11
aI13
aI6
aI13
aI8
aI13
aI9
aI13
aI10
aI13
aI11
aI13
aI12
aI14
aI4
aI14
aI6
aI14
aI7
aI14
aI8
aI14
aI9
aI14
aI10
aI14
aI11
aI14
aI12
aI14
aI13
aI15
aI6
aI15
aI8
aI15
aI9
aI15
aI10
aI15
aI14
aI16
aI6
aI16
aI8
aI16
aI9
aI16
aI10
aI16
aI14
aI16
aI15
aI17
aI8
aI17
aI14
aI17
aI15
aI17
aI16
aI18
aI8
aI18
aI14
aI18
aI15
aI18
aI16
aI18
aI17
aI19
aI14
aI19
aI16
aI19
aI17
aI19
aI18
aI20
aI14
aI20
aI16
aI20
aI17
aI20
aI18
aI20
aI19
aI21
aI14
aI21
aI16
aI21
aI17
aI21
aI18
aI21
aI19
aI21
aI20
asg99
(lp370
I98
aI2
asg101
S'Exclusions'
p371
sbsbsS'configuration'
p372
g1
(cpMolecule.Configuration
Configuration
p373
tRp374
(dp375
S'coordinates3'
p376
g1
(cpCore.Coordinates3
Coordinates3
p377
tRp378
(dp379
g97
(lp380
F-2.9218999999999999
aF1.5228999999999999
aF-0.19270000000000001
aF-3.0347
aF2.5994000000000002
aF-0.32819999999999999
aF-3.1309999999999998
aF1.036
aF-1.1444000000000001
aF-3.657
aF1.1944999999999999
aF0.54149999999999998
aF-1.5124
aF1.1942999999999999
aF0.27660000000000001
aF-0.67049999999999998
aF2.0832999999999999
aF0.3871
aF-1.2393000000000001
aF-0.091399999999999995
aF0.52649999999999997
aF-1.9547000000000001
aF-0.77669999999999995
aF0.34429999999999999
aF0.056899999999999999
aF-0.60189999999999999
aF0.97089999999999999
aF0.50139999999999996
aF0.10929999999999999
aF1.6707000000000001
aF-0.15240000000000001
aF-1.9273
aF1.7246999999999999
aF-0.79479999999999995
aF-1.7916000000000001
aF2.5952999999999999
aF-0.60370000000000001
aF-2.6867999999999999
aF1.0857000000000001
aF0.79930000000000001
aF-2.3260000000000001
aF2.0794999999999999
aF1.0249999999999999
aF-0.74650000000000005
aF-0.21729999999999999
aF1.3687
aF-1.8543000000000001
aF-0.62409999999999999
aF1.4307000000000001
aF0.38850000000000001
aF-0.79469999999999996
aF1.0217000000000001
aF1.2484
aF-0.43830000000000002
aF2.3268
aF0.45440000000000003
aF-1.9398
aF1.8954
aF-0.065699999999999995
aF-2.7957000000000001
aF2.5045999999999999
aF1.4919
aF-2.2219000000000002
aF3.2865000000000002
aF-0.0080000000000000002
aF-1.7048000000000001
asg99
(lp381
I22
aI3
asS'storage'
p382
S'RowMajor'
p383
sbsbsS'bonds'
p384
(dp385
S'Double'
p386
(lp387
(lp388
I5
aI4
aa(lp389
I15
aI14
aasS'Single'
p390
(lp391
(lp392
I1
aI0
aa(lp393
I2
aI0
aa(lp394
I3
aI0
aa(lp395
I4
aI0
aa(lp396
I6
aI4
aa(lp397
I7
aI6
aa(lp398
I8
aI6
aa(lp399
I9
aI8
aa(lp400
I10
aI8
aa(lp401
I11
aI10
aa(lp402
I12
aI10
aa(lp403
I13
aI10
aa(lp404
I14
aI8
aa(lp405
I16
aI14
aa(lp406
I17
aI16
aa(lp407
I18
aI16
aa(lp408
I19
aI18
aa(lp409
I20
aI18
aa(lp410
I21
aI18
aassg69
(dp411
S'atomicNumber'
p412
(lp413
I6
aI1
aI1
aI1
aI6
aI8
aI7
aI1
aI6
aI1
aI6
aI1
aI1
aI1
aI6
aI8
aI7
aI1
aI6
aI1
aI1
aI1
assS'ringSets'
p414
(lp415
sS'label'
p416
S'bala'
p417
sb.