cpCore.Serialization
RawObjectConstructor
p1
(cpMolecule.System
System
p2
tRp3
(dp4
S'energyModel'
p5
g1
(cpMolecule.EnergyModel
EnergyModel
p6
tRp7
(dp8
S'nbModel'
p9
g1
(cpMolecule.NBModelABFS
NBModelABFS
p10
tRp11
(dp12
S'checkForInverses'
p13
I01
sS'qcmmCoupling'
p14
S'RC Coupling'
p15
sS'generator'
p16
g1
(cpCore.PairListGenerator
PairListGenerator
p17
tRp18
(dp19
S'minimumCellExtent'
p20
I2
sS'minimumExtentFactor'
p21
F1.5
sS'cutoff'
p22
F13.5
sS'cutoffCellSizeFactor'
p23
F0.5
sS'useGridByCell'
p24
I01
sS'cellSize'
p25
F6.75
sS'minimumCellSize'
p26
F3
sS'sortIndices'
p27
I00
sS'minimumPoints'
p28
I500
sbsS'outerCutoff'
p29
F12
sS'qcmmPairwiseInteraction'
p30
g1
(cpMolecule.PairwiseInteraction
PairwiseInteractionABFS
p31
tRp32
(dp33
S'splinePointDensity'
p34
I50
sS'useAnalyticForm'
p35
I01
sS'width2'
p36
F1.0583544165999998
sg29
F12
sS'width1'
p37
F0
sS'dampingCutoff'
p38
F0
sS'innerCutoff'
p39
F8
sS'electrostaticModel'
p40
S'Delta/Gaussian'
p41
sbsS'useCentering'
p42
I00
sS'electrostaticScale14'
p43
F0.5
sg38
F0.5
sS'listCutoff'
p44
F13.5
sS'imageExpandFactor'
p45
I0
sS'qcqcPairwiseInteraction'
p46
g1
(g31
tRp47
(dp48
g34
I50
sg35
I01
sg36
F1.0583544165999998
sg29
F12
sg37
F1.0583544165999998
sg38
F0
sg39
F8
sg40
S'Gaussian/Gaussian'
p49
sbsg39
F8
sS'dielectric'
p50
F1
sS'mmmmPairwiseInteraction'
p51
g1
(g31
tRp52
(dp53
g34
I50
sg35
I01
sg36
F0
sg29
F12
sg37
F0
sg38
F0.5
sg39
F8
sg40
S'Delta/Delta'
p54
sbsbsS'mmAtoms'
p55
g1
(cpMolecule.MMAtomContainer
MMAtomContainer
p56
tRp57
(dp58
S'atomFields'
p59
(lp60
S'isActive'
p61
aS'atomType'
p62
aS'ljType'
p63
aS'charge'
p64
asS'atomTypes'
p65
(lp66
S'CT'
p67
aS'HC'
p68
asS'atoms'
p69
(lp70
(lp71
I01
aI0
aI0
aF-0.12
aa(lp72
I01
aI1
aI1
aF0.059999999999999998
aa(lp73
I01
aI1
aI1
aF0.059999999999999998
aa(lp74
I01
aI0
aI0
aF-0.12
aa(lp75
I01
aI1
aI1
aF0.059999999999999998
aa(lp76
I01
aI1
aI1
aF0.059999999999999998
aa(lp77
I01
aI0
aI0
aF-0.12
aa(lp78
I01
aI1
aI1
aF0.059999999999999998
aa(lp79
I01
aI1
aI1
aF0.059999999999999998
aa(lp80
I01
aI0
aI0
aF-0.12
aa(lp81
I01
aI1
aI1
aF0.059999999999999998
aa(lp82
I01
aI1
aI1
aF0.059999999999999998
aa(lp83
I01
aI0
aI0
aF-0.12
aa(lp84
I01
aI1
aI1
aF0.059999999999999998
aa(lp85
I01
aI1
aI1
aF0.059999999999999998
aa(lp86
I01
aI0
aI0
aF-0.12
aa(lp87
I01
aI1
aI1
aF0.059999999999999998
aa(lp88
I01
aI1
aI1
aF0.059999999999999998
aasbsS'interactions14'
p89
g1
(cpCore.PairList
SelfPairList
p90
tRp91
(dp92
S'items'
p93
(lp94
I4
aI1
aI4
aI2
aI5
aI1
aI5
aI2
aI6
aI1
aI6
aI2
aI7
aI0
aI7
aI4
aI7
aI5
aI8
aI0
aI8
aI4
aI8
aI5
aI9
aI0
aI9
aI4
aI9
aI5
aI10
aI3
aI10
aI7
aI10
aI8
aI11
aI3
aI11
aI7
aI11
aI8
aI12
aI1
aI12
aI2
aI12
aI3
aI12
aI7
aI12
aI8
aI13
aI0
aI13
aI6
aI13
aI10
aI13
aI11
aI14
aI0
aI14
aI6
aI14
aI10
aI14
aI11
aI15
aI4
aI15
aI5
aI15
aI6
aI15
aI10
aI15
aI11
aI16
aI1
aI16
aI2
aI16
aI3
aI16
aI9
aI16
aI13
aI16
aI14
aI17
aI1
aI17
aI2
aI17
aI3
aI17
aI9
aI17
aI13
aI17
aI14
asS'shape'
p95
(lp96
I51
aI2
asS'label'
p97
S'1-4 Interactions'
p98
sbsS'mmModel'
p99
g1
(cpMolecule.MMModel
MMModelOPLS
p100
tRp101
(dp102
S'lennardJonesScale14'
p103
F0.5
sg97
S'OPLS'
p104
sS'lennardJonesStyle'
p105
g104
sg43
F0.5
sS'path'
p106
NsS'fullPath'
p107
NsS'parameterSet'
p108
Nsbsg97
S'OPLS/ABFS'
p109
sS'ljParameters'
p110
g1
(cpMolecule.LJParameterContainer
LJParameterContainer
p111
tRp112
(dp113
S'parameterKeys'
p114
(lp115
g67
ag68
asg97
S'Lennard-Jones'
p116
sS'epsilons'
p117
(lp118
F0.276144
aF0.12551999999999999
asS'numberOfTypes'
p119
I2
sS'sigmas'
p120
(lp121
F3.5
aF2.5
asS'analyticForm'
p122
S'OPLS'
p123
sbsS'mmTerms'
p124
g1
(cpMolecule.MMTermContainer
MMTermContainer
p125
tRp126
(dp127
S'Fourier Dihedral'
p128
g1
(cpMolecule.FourierDihedralContainer
FourierDihedralContainer
p129
tRp130
(dp131
S'terms'
p132
(lp133
(lp134
I4
aI3
aI0
aI1
aI0
aI01
aa(lp135
I4
aI3
aI0
aI2
aI0
aI01
aa(lp136
I4
aI3
aI0
aI15
aI1
aI01
aa(lp137
I5
aI3
aI0
aI1
aI0
aI01
aa(lp138
I5
aI3
aI0
aI2
aI0
aI01
aa(lp139
I5
aI3
aI0
aI15
aI1
aI01
aa(lp140
I6
aI3
aI0
aI1
aI1
aI01
aa(lp141
I6
aI3
aI0
aI2
aI1
aI01
aa(lp142
I6
aI3
aI0
aI15
aI2
aI01
aa(lp143
I6
aI3
aI0
aI15
aI3
aI01
aa(lp144
I6
aI3
aI0
aI15
aI4
aI01
aa(lp145
I7
aI6
aI3
aI0
aI1
aI01
aa(lp146
I7
aI6
aI3
aI4
aI0
aI01
aa(lp147
I7
aI6
aI3
aI5
aI0
aI01
aa(lp148
I8
aI6
aI3
aI0
aI1
aI01
aa(lp149
I8
aI6
aI3
aI4
aI0
aI01
aa(lp150
I8
aI6
aI3
aI5
aI0
aI01
aa(lp151
I9
aI6
aI3
aI0
aI2
aI01
aa(lp152
I9
aI6
aI3
aI0
aI3
aI01
aa(lp153
I9
aI6
aI3
aI0
aI4
aI01
aa(lp154
I9
aI6
aI3
aI4
aI1
aI01
aa(lp155
I9
aI6
aI3
aI5
aI1
aI01
aa(lp156
I10
aI9
aI6
aI3
aI1
aI01
aa(lp157
I10
aI9
aI6
aI7
aI0
aI01
aa(lp158
I10
aI9
aI6
aI8
aI0
aI01
aa(lp159
I11
aI9
aI6
aI3
aI1
aI01
aa(lp160
I11
aI9
aI6
aI7
aI0
aI01
aa(lp161
I11
aI9
aI6
aI8
aI0
aI01
aa(lp162
I12
aI9
aI6
aI3
aI2
aI01
aa(lp163
I12
aI9
aI6
aI3
aI3
aI01
aa(lp164
I12
aI9
aI6
aI3
aI4
aI01
aa(lp165
I12
aI9
aI6
aI7
aI1
aI01
aa(lp166
I12
aI9
aI6
aI8
aI1
aI01
aa(lp167
I13
aI12
aI9
aI6
aI1
aI01
aa(lp168
I13
aI12
aI9
aI10
aI0
aI01
aa(lp169
I13
aI12
aI9
aI11
aI0
aI01
aa(lp170
I14
aI12
aI9
aI6
aI1
aI01
aa(lp171
I14
aI12
aI9
aI10
aI0
aI01
aa(lp172
I14
aI12
aI9
aI11
aI0
aI01
aa(lp173
I15
aI12
aI9
aI6
aI2
aI01
aa(lp174
I15
aI12
aI9
aI6
aI3
aI01
aa(lp175
I15
aI12
aI9
aI6
aI4
aI01
aa(lp176
I15
aI12
aI9
aI10
aI1
aI01
aa(lp177
I15
aI12
aI9
aI11
aI1
aI01
aa(lp178
I12
aI15
aI0
aI1
aI1
aI01
aa(lp179
I12
aI15
aI0
aI2
aI1
aI01
aa(lp180
I12
aI15
aI0
aI3
aI2
aI01
aa(lp181
I12
aI15
aI0
aI3
aI3
aI01
aa(lp182
I12
aI15
aI0
aI3
aI4
aI01
aa(lp183
I16
aI15
aI0
aI1
aI0
aI01
aa(lp184
I16
aI15
aI0
aI2
aI0
aI01
aa(lp185
I16
aI15
aI0
aI3
aI1
aI01
aa(lp186
I17
aI15
aI0
aI1
aI0
aI01
aa(lp187
I17
aI15
aI0
aI2
aI0
aI01
aa(lp188
I17
aI15
aI0
aI3
aI1
aI01
aa(lp189
I0
aI15
aI12
aI9
aI2
aI01
aa(lp190
I0
aI15
aI12
aI9
aI3
aI01
aa(lp191
I0
aI15
aI12
aI9
aI4
aI01
aa(lp192
I0
aI15
aI12
aI13
aI1
aI01
aa(lp193
I0
aI15
aI12
aI14
aI1
aI01
aa(lp194
I16
aI15
aI12
aI9
aI1
aI01
aa(lp195
I16
aI15
aI12
aI13
aI0
aI01
aa(lp196
I16
aI15
aI12
aI14
aI0
aI01
aa(lp197
I17
aI15
aI12
aI9
aI1
aI01
aa(lp198
I17
aI15
aI12
aI13
aI0
aI01
aa(lp199
I17
aI15
aI12
aI14
aI0
aI01
aasS'parameters'
p200
(lp201
(lp202
F0.62760000000000005
aI3
aF0
aa(lp203
F0.62760000000000005
aI3
aF0
aa(lp204
F2.7196000000000002
aI1
aF0
aa(lp205
F-0.10460000000000001
aI2
aF3.1415926535897931
aa(lp206
F0.41840000000000005
aI3
aF0
aasg114
(lp207
S'HC:CT:CT:HC:3'
p208
aS'HC:CT:CT:CT:3'
p209
aS'CT:CT:CT:CT:1'
p210
aS'CT:CT:CT:CT:2'
p211
aS'CT:CT:CT:CT:3'
p212
asg97
g128
sS'parameterFields'
p213
(lp214
S'forceConstant'
p215
aS'period'
p216
aS'phase'
p217
asS'termFields'
p218
(lp219
S'atom1'
p220
aS'atom2'
p221
aS'atom3'
p222
aS'atom4'
p223
aS'parameter'
p224
ag61
asbsS'Harmonic Angle'
p225
g1
(cpMolecule.HarmonicAngleContainer
HarmonicAngleContainer
p226
tRp227
(dp228
g132
(lp229
(lp230
I2
aI0
aI1
aI0
aI01
aa(lp231
I3
aI0
aI1
aI1
aI01
aa(lp232
I3
aI0
aI2
aI1
aI01
aa(lp233
I15
aI0
aI1
aI1
aI01
aa(lp234
I15
aI0
aI2
aI1
aI01
aa(lp235
I15
aI0
aI3
aI2
aI01
aa(lp236
I4
aI3
aI0
aI1
aI01
aa(lp237
I5
aI3
aI0
aI1
aI01
aa(lp238
I5
aI3
aI4
aI0
aI01
aa(lp239
I6
aI3
aI0
aI2
aI01
aa(lp240
I6
aI3
aI4
aI1
aI01
aa(lp241
I6
aI3
aI5
aI1
aI01
aa(lp242
I7
aI6
aI3
aI1
aI01
aa(lp243
I8
aI6
aI3
aI1
aI01
aa(lp244
I8
aI6
aI7
aI0
aI01
aa(lp245
I9
aI6
aI3
aI2
aI01
aa(lp246
I9
aI6
aI7
aI1
aI01
aa(lp247
I9
aI6
aI8
aI1
aI01
aa(lp248
I10
aI9
aI6
aI1
aI01
aa(lp249
I11
aI9
aI6
aI1
aI01
aa(lp250
I11
aI9
aI10
aI0
aI01
aa(lp251
I12
aI9
aI6
aI2
aI01
aa(lp252
I12
aI9
aI10
aI1
aI01
aa(lp253
I12
aI9
aI11
aI1
aI01
aa(lp254
I13
aI12
aI9
aI1
aI01
aa(lp255
I14
aI12
aI9
aI1
aI01
aa(lp256
I14
aI12
aI13
aI0
aI01
aa(lp257
I15
aI12
aI9
aI2
aI01
aa(lp258
I15
aI12
aI13
aI1
aI01
aa(lp259
I15
aI12
aI14
aI1
aI01
aa(lp260
I12
aI15
aI0
aI2
aI01
aa(lp261
I16
aI15
aI0
aI1
aI01
aa(lp262
I16
aI15
aI12
aI1
aI01
aa(lp263
I17
aI15
aI0
aI1
aI01
aa(lp264
I17
aI15
aI12
aI1
aI01
aa(lp265
I17
aI15
aI16
aI0
aI01
aasg200
(lp266
(lp267
F1.8814649336498872
aF138.072
aa(lp268
F1.9320794819577229
aF156.90000000000001
aa(lp269
F1.9669860669976094
aF244.13640000000001
aasg114
(lp270
S'HC:CT:HC'
p271
aS'HC:CT:CT'
p272
aS'CT:CT:CT'
p273
asg97
g225
sg213
(lp274
S'equilibriumValue'
p275
ag215
asg218
(lp276
g220
ag221
ag222
ag223
ag224
ag61
asbsS'Harmonic Bond'
p277
g1
(cpMolecule.HarmonicBondContainer
HarmonicBondContainer
p278
tRp279
(dp280
g132
(lp281
(lp282
I1
aI0
aI1
aI01
aa(lp283
I2
aI0
aI1
aI01
aa(lp284
I3
aI0
aI0
aI01
aa(lp285
I4
aI3
aI1
aI01
aa(lp286
I5
aI3
aI1
aI01
aa(lp287
I6
aI3
aI0
aI01
aa(lp288
I7
aI6
aI1
aI01
aa(lp289
I8
aI6
aI1
aI01
aa(lp290
I9
aI6
aI0
aI01
aa(lp291
I10
aI9
aI1
aI01
aa(lp292
I11
aI9
aI1
aI01
aa(lp293
I12
aI9
aI0
aI01
aa(lp294
I13
aI12
aI1
aI01
aa(lp295
I14
aI12
aI1
aI01
aa(lp296
I15
aI0
aI0
aI01
aa(lp297
I15
aI12
aI0
aI01
aa(lp298
I16
aI15
aI1
aI01
aa(lp299
I17
aI15
aI1
aI01
aasg200
(lp300
(lp301
F1.5289999999999999
aF1121.3120000000001
aa(lp302
F1.0900000000000001
aF1422.5599999999999
aasg114
(lp303
S'CT:CT'
p304
aS'HC:CT'
p305
asg97
g277
sS'is12Interaction'
p306
I01
sg213
(lp307
g275
ag215
asg218
(lp308
g220
ag221
ag224
ag61
asbsbsS'ljParameters14'
p309
g1
(g111
tRp310
(dp311
g114
(lp312
g67
ag68
asg97
S'1-4 Lennard-Jones'
p313
sg117
(lp314
F0.138072
aF0.062759999999999996
asg119
I2
sg120
(lp315
F3.5
aF2.5
asg122
g123
sbsS'exclusions'
p316
g1
(g90
tRp317
(dp318
g93
(lp319
I1
aI0
aI2
aI0
aI2
aI1
aI3
aI0
aI3
aI1
aI3
aI2
aI4
aI0
aI4
aI1
aI4
aI2
aI4
aI3
aI5
aI0
aI5
aI1
aI5
aI2
aI5
aI3
aI5
aI4
aI6
aI0
aI6
aI1
aI6
aI2
aI6
aI3
aI6
aI4
aI6
aI5
aI7
aI0
aI7
aI3
aI7
aI4
aI7
aI5
aI7
aI6
aI8
aI0
aI8
aI3
aI8
aI4
aI8
aI5
aI8
aI6
aI8
aI7
aI9
aI0
aI9
aI3
aI9
aI4
aI9
aI5
aI9
aI6
aI9
aI7
aI9
aI8
aI10
aI3
aI10
aI6
aI10
aI7
aI10
aI8
aI10
aI9
aI11
aI3
aI11
aI6
aI11
aI7
aI11
aI8
aI11
aI9
aI11
aI10
aI12
aI0
aI12
aI1
aI12
aI2
aI12
aI3
aI12
aI6
aI12
aI7
aI12
aI8
aI12
aI9
aI12
aI10
aI12
aI11
aI13
aI0
aI13
aI6
aI13
aI9
aI13
aI10
aI13
aI11
aI13
aI12
aI14
aI0
aI14
aI6
aI14
aI9
aI14
aI10
aI14
aI11
aI14
aI12
aI14
aI13
aI15
aI0
aI15
aI1
aI15
aI2
aI15
aI3
aI15
aI4
aI15
aI5
aI15
aI6
aI15
aI9
aI15
aI10
aI15
aI11
aI15
aI12
aI15
aI13
aI15
aI14
aI16
aI0
aI16
aI1
aI16
aI2
aI16
aI3
aI16
aI9
aI16
aI12
aI16
aI13
aI16
aI14
aI16
aI15
aI17
aI0
aI17
aI1
aI17
aI2
aI17
aI3
aI17
aI9
aI17
aI12
aI17
aI13
aI17
aI14
aI17
aI15
aI17
aI16
asg95
(lp320
I105
aI2
asg97
S'Exclusions'
p321
sbsbsS'configuration'
p322
g1
(cpMolecule.Configuration
Configuration
p323
tRp324
(dp325
S'coordinates3'
p326
g1
(cpCore.Coordinates3
Coordinates3
p327
tRp328
(dp329
g93
(lp330
F0.82899999999999996
aF1.2065999999999999
aF-0.23549999999999999
aF1.4089
aF2.0507
aF0.13950000000000001
aF0.86870000000000003
aF1.2645
aF-1.3242
aF1.4594
aF-0.11459999999999999
aF0.23549999999999999
aF1.5294000000000001
aF-0.1201
aF1.3242
aF2.4803999999999999
aF-0.1948
aF-0.13950000000000001
aF0.63049999999999995
aF-1.3211999999999999
aF-0.23549999999999999
aF1.0714999999999999
aF-2.2454999999999998
aF0.13950000000000001
aF0.66069999999999995
aF-1.3846000000000001
aF-1.3242
aF-0.82899999999999996
aF-1.2065999999999999
aF0.23549999999999999
aF-0.86870000000000003
aF-1.2645
aF1.3242
aF-1.4089
aF-2.0507
aF-0.13950000000000001
aF-1.4594
aF0.11459999999999999
aF-0.23549999999999999
aF-2.4803999999999999
aF0.1948
aF0.13950000000000001
aF-1.5294000000000001
aF0.1201
aF-1.3242
aF-0.63049999999999995
aF1.3211999999999999
aF0.23549999999999999
aF-0.66069999999999995
aF1.3846000000000001
aF1.3242
aF-1.0714999999999999
aF2.2454999999999998
aF-0.13950000000000001
asg95
(lp331
I18
aI3
asS'storage'
p332
S'RowMajor'
p333
sbsbsS'bonds'
p334
(dp335
S'Single'
p336
(lp337
(lp338
I1
aI0
aa(lp339
I2
aI0
aa(lp340
I3
aI0
aa(lp341
I4
aI3
aa(lp342
I5
aI3
aa(lp343
I6
aI3
aa(lp344
I7
aI6
aa(lp345
I8
aI6
aa(lp346
I9
aI6
aa(lp347
I10
aI9
aa(lp348
I11
aI9
aa(lp349
I12
aI9
aa(lp350
I13
aI12
aa(lp351
I14
aI12
aa(lp352
I15
aI0
aa(lp353
I15
aI12
aa(lp354
I16
aI15
aa(lp355
I17
aI15
aassg69
(dp356
S'atomicNumber'
p357
(lp358
I6
aI1
aI1
aI6
aI1
aI1
aI6
aI1
aI1
aI6
aI1
aI1
aI6
aI1
aI1
aI6
aI1
aI1
assS'ringSets'
p359
(lp360
(lp361
(lp362
I0
aI3
aI6
aI9
aI12
aI15
aaasS'label'
p363
S'cyclohexane'
p364
sb.